target datalayout = "e-m:e-p270:32:32-p271:32:32-p272:64:64-i64:64-i128:128-f80:128-n8:16:32:64-S128"
target triple = "x86_64-pc-linux-gnu"

%struct._zend_llist = type { ptr, ptr, i64, i64, ptr, i8, ptr }
%struct._zend_extension = type { ptr, ptr, ptr, ptr, ptr, ptr, ptr, ptr, ptr, ptr, ptr, ptr, ptr, ptr, ptr, ptr, ptr, ptr, ptr, ptr, ptr, ptr, ptr, ptr, ptr, i32 }
%struct._zend_llist_element = type { ptr, ptr, [1 x i8] }

@zend_extensions = dso_local global %struct._zend_llist zeroinitializer, align 8

; Function Attrs: nounwind uwtable
define dso_local ptr @zend_get_extension(ptr noundef %0) #0 {
  %2 = alloca ptr, align 8
  %3 = alloca ptr, align 8
  %4 = alloca ptr, align 8
  %5 = alloca ptr, align 8
  %6 = alloca i32, align 4
  store ptr %0, ptr %3, align 8, !tbaa !4
  call void @llvm.lifetime.start.p0(i64 8, ptr %4) #11
  %7 = load ptr, ptr @zend_extensions, align 8, !tbaa !26
  store ptr %7, ptr %4, align 8, !tbaa !30
  br label %8

8:                                                ; preds = %27, %1
  %9 = load ptr, ptr %4, align 8, !tbaa !30
  %10 = icmp ne ptr %9, null
  br i1 %10, label %11, label %31

11:                                               ; preds = %8
  call void @llvm.lifetime.start.p0(i64 8, ptr %5) #11
  %12 = load ptr, ptr %4, align 8, !tbaa !30
  %13 = getelementptr inbounds nuw %struct._zend_llist_element, ptr %12, i32 0, i32 2
  %14 = getelementptr inbounds [1 x i8], ptr %13, i64 0, i64 0
  store ptr %14, ptr %5, align 8, !tbaa !14
  %15 = load ptr, ptr %5, align 8, !tbaa !14
  %16 = getelementptr inbounds nuw %struct._zend_extension, ptr %15, i32 0, i32 0
  %17 = load ptr, ptr %16, align 8, !tbaa !21
  %18 = load ptr, ptr %3, align 8, !tbaa !4
  %19 = call i32 @strcmp(ptr noundef %17, ptr noundef %18) #12
  %20 = icmp ne i32 %19, 0
  br i1 %20, label %23, label %21

21:                                               ; preds = %11
  %22 = load ptr, ptr %5, align 8, !tbaa !14
  store ptr %22, ptr %2, align 8
  store i32 1, ptr %6, align 4
  br label %24

23:                                               ; preds = %11
  store i32 0, ptr %6, align 4
  br label %24

24:                                               ; preds = %23, %21
  call void @llvm.lifetime.end.p0(i64 8, ptr %5) #11
  %25 = load i32, ptr %6, align 4
  switch i32 %25, label %32 [
    i32 0, label %26
  ]

26:                                               ; preds = %24
  br label %27

27:                                               ; preds = %26
  %28 = load ptr, ptr %4, align 8, !tbaa !30
  %29 = getelementptr inbounds nuw %struct._zend_llist_element, ptr %28, i32 0, i32 0
  %30 = load ptr, ptr %29, align 8, !tbaa !31
  store ptr %30, ptr %4, align 8, !tbaa !30
  br label %8

31:                                               ; preds = %8
  store ptr null, ptr %2, align 8
  store i32 1, ptr %6, align 4
  br label %32

32:                                               ; preds = %31, %24
  call void @llvm.lifetime.end.p0(i64 8, ptr %4) #11
  %33 = load ptr, ptr %2, align 8
  ret ptr %33
}