; Function Attrs: nofree nounwind memory(read, inaccessiblemem: none) uwtable
define dso_local ptr @zend_get_extension(ptr noundef readonly captures(none) %0) local_unnamed_addr #5 {
  br label %2

2:                                                ; preds = %3, %1
  %.08.in = phi ptr [ @zend_extensions, %1 ], [ %.08, %3 ]
  %.08 = load ptr, ptr %.08.in, align 8, !tbaa !20
  %.not = icmp eq ptr %.08, null
  br i1 %.not, label %.split.loop.exit, label %3

3:                                                ; preds = %2
  %4 = getelementptr inbounds nuw i8, ptr %.08, i64 16
  %5 = load ptr, ptr %4, align 8, !tbaa !15
  %6 = tail call i32 @strcmp(ptr noundef nonnull dereferenceable(1) %5, ptr noundef nonnull dereferenceable(1) %0) #16
  %.not9.not = icmp eq i32 %6, 0
  br i1 %.not9.not, label %.split.loop.exit.split.loop.exit13, label %2

.split.loop.exit.split.loop.exit13:               ; preds = %3
  %7 = getelementptr inbounds nuw i8, ptr %.08, i64 16
  br label %.split.loop.exit

.split.loop.exit:                                 ; preds = %2, %.split.loop.exit.split.loop.exit13
  %.2 = phi ptr [ %7, %.split.loop.exit.split.loop.exit13 ], [ null, %2 ]
  ret ptr %.2
}